; Function Attrs: mustprogress nofree norecurse nosync nounwind memory(argmem: readwrite) uwtable
define internal void @_ZN2cvL13minMaxIdx_32sEPKiPKhPiS4_PmS5_im(ptr noundef readonly captures(none) %0, ptr noundef readonly %1, ptr noundef captures(none) %2, ptr noundef captures(none) %3, ptr noundef captures(none) %4, ptr noundef captures(none) %5, i32 noundef %6, i64 noundef %7) #7 {
  %9 = load i32, ptr %2, align 4, !tbaa !35
  %10 = load i32, ptr %3, align 4, !tbaa !35
  %11 = load i64, ptr %4, align 8, !tbaa !34
  %12 = load i64, ptr %5, align 8, !tbaa !34
  %.not.i = icmp eq ptr %1, null
  %13 = icmp sgt i32 %6, 0
  br i1 %.not.i, label %.preheader.i, label %.preheader72.i

.preheader72.i:                                   ; preds = %8
  br i1 %13, label %.lr.ph.preheader.i, label %_ZN2cvL10minMaxIdx_IiiEEvPKT_PKhPT0_S7_PmS8_im.exit

.lr.ph.preheader.i:                               ; preds = %.preheader72.i
  %wide.trip.count.i = zext nneg i32 %6 to i64
  br label %.lr.ph.i

.preheader.i:                                     ; preds = %8
  br i1 %13, label %.lr.ph87.preheader.i, label %_ZN2cvL10minMaxIdx_IiiEEvPKT_PKhPT0_S7_PmS8_im.exit

.lr.ph87.preheader.i:                             ; preds = %.preheader.i
  %wide.trip.count97.i = zext nneg i32 %6 to i64
  br label %.lr.ph87.i

.lr.ph87.i:                                       ; preds = %.lr.ph87.i, %.lr.ph87.preheader.i
  %indvars.iv94.i = phi i64 [ 0, %.lr.ph87.preheader.i ], [ %indvars.iv.next95.i, %.lr.ph87.i ]
  %.086.i = phi i32 [ %9, %.lr.ph87.preheader.i ], [ %spec.select70.i, %.lr.ph87.i ]
  %.04785.i = phi i32 [ %10, %.lr.ph87.preheader.i ], [ %.148.i, %.lr.ph87.i ]
  %.05383.i = phi i64 [ %12, %.lr.ph87.preheader.i ], [ %.154.i, %.lr.ph87.i ]
  %.05882.i = phi i64 [ %11, %.lr.ph87.preheader.i ], [ %spec.select.i, %.lr.ph87.i ]
  %14 = getelementptr inbounds nuw i32, ptr %0, i64 %indvars.iv94.i
  %15 = load i32, ptr %14, align 4, !tbaa !35
  %16 = icmp slt i32 %15, %.086.i
  %17 = add i64 %indvars.iv94.i, %7
  %spec.select.i = select i1 %16, i64 %17, i64 %.05882.i
  %spec.select70.i = tail call i32 @llvm.smin.i32(i32 %15, i32 %.086.i)
  %18 = icmp sgt i32 %15, %.04785.i
  %.154.i = select i1 %18, i64 %17, i64 %.05383.i
  %.148.i = tail call i32 @llvm.smax.i32(i32 %15, i32 %.04785.i)
  %indvars.iv.next95.i = add nuw nsw i64 %indvars.iv94.i, 1
  %exitcond98.not.i = icmp eq i64 %indvars.iv.next95.i, %wide.trip.count97.i
  br i1 %exitcond98.not.i, label %_ZN2cvL10minMaxIdx_IiiEEvPKT_PKhPT0_S7_PmS8_im.exit, label %.lr.ph87.i, !llvm.loop !74

.lr.ph.i:                                         ; preds = %.lr.ph.i, %.lr.ph.preheader.i
  %indvars.iv.i = phi i64 [ 0, %.lr.ph.preheader.i ], [ %indvars.iv.next.i, %.lr.ph.i ]
  %.378.i = phi i32 [ %9, %.lr.ph.preheader.i ], [ %.4.i, %.lr.ph.i ]
  %.35076.i = phi i32 [ %10, %.lr.ph.preheader.i ], [ %.451.i, %.lr.ph.i ]
  %.35675.i = phi i64 [ %12, %.lr.ph.preheader.i ], [ %.457.i, %.lr.ph.i ]
  %.36174.i = phi i64 [ %11, %.lr.ph.preheader.i ], [ %.462.i, %.lr.ph.i ]
  %19 = getelementptr inbounds nuw i32, ptr %0, i64 %indvars.iv.i
  %20 = load i32, ptr %19, align 4, !tbaa !35
  %21 = getelementptr inbounds nuw i8, ptr %1, i64 %indvars.iv.i
  %22 = load i8, ptr %21, align 1, !tbaa !63
  %.not68.i = icmp ne i8 %22, 0
  %23 = icmp slt i32 %20, %.378.i
  %or.cond.i = select i1 %.not68.i, i1 %23, i1 false
  %24 = add i64 %indvars.iv.i, %7
  %.462.i = select i1 %or.cond.i, i64 %24, i64 %.36174.i
  %.4.i = select i1 %or.cond.i, i32 %20, i32 %.378.i
  %25 = icmp sgt i32 %20, %.35076.i
  %or.cond71.i = select i1 %.not68.i, i1 %25, i1 false
  %.457.i = select i1 %or.cond71.i, i64 %24, i64 %.35675.i
  %.451.i = select i1 %or.cond71.i, i32 %20, i32 %.35076.i
  %indvars.iv.next.i = add nuw nsw i64 %indvars.iv.i, 1
  %exitcond.not.i = icmp eq i64 %indvars.iv.next.i, %wide.trip.count.i
  br i1 %exitcond.not.i, label %_ZN2cvL10minMaxIdx_IiiEEvPKT_PKhPT0_S7_PmS8_im.exit, label %.lr.ph.i, !llvm.loop !75

_ZN2cvL10minMaxIdx_IiiEEvPKT_PKhPT0_S7_PmS8_im.exit: ; preds = %.lr.ph.i, %.lr.ph87.i, %.preheader72.i, %.preheader.i
  %.260.i = phi i64 [ %11, %.preheader.i ], [ %11, %.preheader72.i ], [ %spec.select.i, %.lr.ph87.i ], [ %.462.i, %.lr.ph.i ]
  %.255.i = phi i64 [ %12, %.preheader.i ], [ %12, %.preheader72.i ], [ %.154.i, %.lr.ph87.i ], [ %.457.i, %.lr.ph.i ]
  %.249.i = phi i32 [ %10, %.preheader.i ], [ %10, %.preheader72.i ], [ %.148.i, %.lr.ph87.i ], [ %.451.i, %.lr.ph.i ]
  %.2.i = phi i32 [ %9, %.preheader.i ], [ %9, %.preheader72.i ], [ %spec.select70.i, %.lr.ph87.i ], [ %.4.i, %.lr.ph.i ]
  store i64 %.260.i, ptr %4, align 8, !tbaa !34
  store i64 %.255.i, ptr %5, align 8, !tbaa !34
  store i32 %.2.i, ptr %2, align 4, !tbaa !35
  store i32 %.249.i, ptr %3, align 4, !tbaa !35
  ret void
}